target datalayout = "e-m:e-p270:32:32-p271:32:32-p272:64:64-i64:64-i128:128-f80:128-n8:16:32:64-S128"
target triple = "x86_64-pc-linux-gnu"

%union._ir_val = type { double }

; Function Attrs: nounwind uwtable
define hidden i32 @ir_const_func_addr(ptr noundef %0, i64 noundef %1, i32 noundef %2) #0 {
  %4 = alloca i32, align 4
  %5 = alloca ptr, align 8
  %6 = alloca i64, align 8
  %7 = alloca i32, align 4
  %8 = alloca %union._ir_val, align 8
  store ptr %0, ptr %5, align 8
  store i64 %1, ptr %6, align 8
  store i32 %2, ptr %7, align 4
  %9 = load i64, ptr %6, align 8
  %10 = icmp eq i64 %9, 0
  br i1 %10, label %11, label %12

11:                                               ; preds = %3
  store i32 -1, ptr %4, align 4
  br label %21

12:                                               ; preds = %3
  %13 = load i64, ptr %6, align 8
  store i64 %13, ptr %8, align 8
  %14 = load ptr, ptr %5, align 8
  %15 = load i32, ptr %7, align 4
  %16 = shl i32 %15, 16
  %17 = or i32 1601, %16
  %18 = getelementptr inbounds %union._ir_val, ptr %8, i32 0, i32 0
  %19 = load i64, ptr %18, align 8
  %20 = call i32 @ir_const_ex(ptr noundef %14, i64 %19, i8 noundef zeroext 6, i32 noundef %17)
  store i32 %20, ptr %4, align 4
  br label %21

21:                                               ; preds = %12, %11
  %22 = load i32, ptr %4, align 4
  ret i32 %22
}