; Function Attrs: nounwind uwtable
define hidden i32 @ir_const_func_addr(ptr nocapture noundef %0, i64 noundef %1, i32 noundef %2) local_unnamed_addr #0 {
  %4 = icmp eq i64 %1, 0
  br i1 %4, label %9, label %5

5:                                                ; preds = %3
  %6 = shl i32 %2, 16
  %7 = or disjoint i32 %6, 1601
  %8 = tail call i32 @ir_const_ex(ptr noundef %0, i64 %1, i8 noundef zeroext 6, i32 noundef %7)
  br label %9

9:                                                ; preds = %3, %5
  %.0 = phi i32 [ %8, %5 ], [ -1, %3 ]
  ret i32 %.0
}